target datalayout = "e-m:e-p270:32:32-p271:32:32-p272:64:64-i64:64-i128:128-f80:128-n8:16:32:64-S128"
target triple = "x86_64-pc-linux-gnu"

%struct.KDF_HKDF = type { ptr, i32, %struct.PROV_DIGEST, ptr, i64, ptr, i64, ptr, i64, ptr, i64, ptr, i64, ptr, i64 }
%struct.PROV_DIGEST = type { ptr, ptr, ptr }
%struct.ossl_param_st = type { ptr, i32, ptr, i64, i64 }

@.str = private unnamed_addr constant [49 x i8] c"../openssl/providers/implementations/kdfs/hkdf.c\00", align 1
@.str.7 = private unnamed_addr constant [5 x i8] c"info\00", align 1
@.str.11 = private unnamed_addr constant [5 x i8] c"size\00", align 1
@__func__.kdf_hkdf_size = private unnamed_addr constant [14 x i8] c"kdf_hkdf_size\00", align 1

; Function Attrs: nounwind uwtable
define internal i64 @kdf_hkdf_size(ptr noundef %0) #0 {
  %2 = alloca i64, align 8
  %3 = alloca ptr, align 8
  %4 = alloca i32, align 4
  %5 = alloca ptr, align 8
  %6 = alloca i32, align 4
  store ptr %0, ptr %3, align 8, !tbaa !3
  call void @llvm.lifetime.start.p0(i64 4, ptr %4) #6
  call void @llvm.lifetime.start.p0(i64 8, ptr %5) #6
  %7 = load ptr, ptr %3, align 8, !tbaa !3
  %8 = getelementptr inbounds nuw %struct.KDF_HKDF, ptr %7, i32 0, i32 2
  %9 = call ptr @ossl_prov_digest_md(ptr noundef %8)
  store ptr %9, ptr %5, align 8, !tbaa !34
  %10 = load ptr, ptr %3, align 8, !tbaa !3
  %11 = getelementptr inbounds nuw %struct.KDF_HKDF, ptr %10, i32 0, i32 1
  %12 = load i32, ptr %11, align 8, !tbaa !27
  %13 = icmp ne i32 %12, 1
  br i1 %13, label %14, label %15

14:                                               ; preds = %1
  store i64 -1, ptr %2, align 8
  store i32 1, ptr %6, align 4
  br label %28

15:                                               ; preds = %1
  %16 = load ptr, ptr %5, align 8, !tbaa !34
  %17 = icmp eq ptr %16, null
  br i1 %17, label %18, label %19

18:                                               ; preds = %15
  call void @ERR_new()
  call void @ERR_set_debug(ptr noundef @.str, i32 noundef 185, ptr noundef @__func__.kdf_hkdf_size)
  call void (i32, i32, ptr, ...) @ERR_set_error(i32 noundef 57, i32 noundef 129, ptr noundef null)
  store i64 0, ptr %2, align 8
  store i32 1, ptr %6, align 4
  br label %28

19:                                               ; preds = %15
  %20 = load ptr, ptr %5, align 8, !tbaa !34
  %21 = call i32 @EVP_MD_get_size(ptr noundef %20)
  store i32 %21, ptr %4, align 4, !tbaa !35
  %22 = load i32, ptr %4, align 4, !tbaa !35
  %23 = icmp sle i32 %22, 0
  br i1 %23, label %24, label %25

24:                                               ; preds = %19
  store i64 0, ptr %2, align 8
  store i32 1, ptr %6, align 4
  br label %28

25:                                               ; preds = %19
  %26 = load i32, ptr %4, align 4, !tbaa !35
  %27 = sext i32 %26 to i64
  store i64 %27, ptr %2, align 8
  store i32 1, ptr %6, align 4
  br label %28

28:                                               ; preds = %25, %24, %18, %14
  call void @llvm.lifetime.end.p0(i64 8, ptr %5) #6
  call void @llvm.lifetime.end.p0(i64 4, ptr %4) #6
  %29 = load i64, ptr %2, align 8
  ret i64 %29
}

; Function Attrs: inlinehint nounwind uwtable
define internal i32 @ossl_param_is_empty(ptr noundef %0) #5 {
  %2 = alloca ptr, align 8
  store ptr %0, ptr %2, align 8, !tbaa !30
  %3 = load ptr, ptr %2, align 8, !tbaa !30
  %4 = icmp eq ptr %3, null
  br i1 %4, label %10, label %5

5:                                                ; preds = %1
  %6 = load ptr, ptr %2, align 8, !tbaa !30
  %7 = getelementptr inbounds nuw %struct.ossl_param_st, ptr %6, i32 0, i32 0
  %8 = load ptr, ptr %7, align 8, !tbaa !41
  %9 = icmp eq ptr %8, null
  br label %10

10:                                               ; preds = %5, %1
  %11 = phi i1 [ true, %1 ], [ %9, %5 ]
  %12 = zext i1 %11 to i32
  ret i32 %12
}

; Function Attrs: nounwind uwtable
define internal i32 @hkdf_common_get_ctx_params(ptr noundef %0, ptr noundef %1) #0 {
  %3 = alloca i32, align 4
  %4 = alloca ptr, align 8
  %5 = alloca ptr, align 8
  %6 = alloca ptr, align 8
  %7 = alloca i32, align 4
  %8 = alloca i64, align 8
  store ptr %0, ptr %4, align 8, !tbaa !3
  store ptr %1, ptr %5, align 8, !tbaa !30
  call void @llvm.lifetime.start.p0(i64 8, ptr %6) #6
  %9 = load ptr, ptr %5, align 8, !tbaa !30
  %10 = call i32 @ossl_param_is_empty(ptr noundef %9)
  %11 = icmp ne i32 %10, 0
  br i1 %11, label %12, label %13

12:                                               ; preds = %2
  store i32 1, ptr %3, align 4
  store i32 1, ptr %7, align 4
  br label %64

13:                                               ; preds = %2
  %14 = load ptr, ptr %5, align 8, !tbaa !30
  %15 = call ptr @OSSL_PARAM_locate(ptr noundef %14, ptr noundef @.str.11)
  store ptr %15, ptr %6, align 8, !tbaa !30
  %16 = icmp ne ptr %15, null
  br i1 %16, label %17, label %33

17:                                               ; preds = %13
  call void @llvm.lifetime.start.p0(i64 8, ptr %8) #6
  %18 = load ptr, ptr %4, align 8, !tbaa !3
  %19 = call i64 @kdf_hkdf_size(ptr noundef %18)
  store i64 %19, ptr %8, align 8, !tbaa !29
  %20 = load i64, ptr %8, align 8, !tbaa !29
  %21 = icmp eq i64 %20, 0
  br i1 %21, label %22, label %23

22:                                               ; preds = %17
  store i32 0, ptr %3, align 4
  store i32 1, ptr %7, align 4
  br label %30

23:                                               ; preds = %17
  %24 = load ptr, ptr %6, align 8, !tbaa !30
  %25 = load i64, ptr %8, align 8, !tbaa !29
  %26 = call i32 @OSSL_PARAM_set_size_t(ptr noundef %24, i64 noundef %25)
  %27 = icmp ne i32 %26, 0
  br i1 %27, label %29, label %28

28:                                               ; preds = %23
  store i32 0, ptr %3, align 4
  store i32 1, ptr %7, align 4
  br label %30

29:                                               ; preds = %23
  store i32 0, ptr %7, align 4
  br label %30

30:                                               ; preds = %29, %28, %22
  call void @llvm.lifetime.end.p0(i64 8, ptr %8) #6
  %31 = load i32, ptr %7, align 4
  switch i32 %31, label %64 [
    i32 0, label %32
  ]

32:                                               ; preds = %30
  br label %33

33:                                               ; preds = %32, %13
  %34 = load ptr, ptr %5, align 8, !tbaa !30
  %35 = call ptr @OSSL_PARAM_locate(ptr noundef %34, ptr noundef @.str.7)
  store ptr %35, ptr %6, align 8, !tbaa !30
  %36 = icmp ne ptr %35, null
  br i1 %36, label %37, label %63

37:                                               ; preds = %33
  %38 = load ptr, ptr %4, align 8, !tbaa !3
  %39 = getelementptr inbounds nuw %struct.KDF_HKDF, ptr %38, i32 0, i32 13
  %40 = load ptr, ptr %39, align 8, !tbaa !25
  %41 = icmp eq ptr %40, null
  br i1 %41, label %47, label %42

42:                                               ; preds = %37
  %43 = load ptr, ptr %4, align 8, !tbaa !3
  %44 = getelementptr inbounds nuw %struct.KDF_HKDF, ptr %43, i32 0, i32 14
  %45 = load i64, ptr %44, align 8, !tbaa !26
  %46 = icmp eq i64 %45, 0
  br i1 %46, label %47, label %50

47:                                               ; preds = %42, %37
  %48 = load ptr, ptr %6, align 8, !tbaa !30
  %49 = getelementptr inbounds nuw %struct.ossl_param_st, ptr %48, i32 0, i32 4
  store i64 0, ptr %49, align 8, !tbaa !46
  br label %62

50:                                               ; preds = %42
  %51 = load ptr, ptr %6, align 8, !tbaa !30
  %52 = load ptr, ptr %4, align 8, !tbaa !3
  %53 = getelementptr inbounds nuw %struct.KDF_HKDF, ptr %52, i32 0, i32 13
  %54 = load ptr, ptr %53, align 8, !tbaa !25
  %55 = load ptr, ptr %4, align 8, !tbaa !3
  %56 = getelementptr inbounds nuw %struct.KDF_HKDF, ptr %55, i32 0, i32 14
  %57 = load i64, ptr %56, align 8, !tbaa !26
  %58 = call i32 @OSSL_PARAM_set_octet_string(ptr noundef %51, ptr noundef %54, i64 noundef %57)
  %59 = icmp ne i32 %58, 0
  br i1 %59, label %61, label %60

60:                                               ; preds = %50
  store i32 0, ptr %3, align 4
  store i32 1, ptr %7, align 4
  br label %64

61:                                               ; preds = %50
  br label %62

62:                                               ; preds = %61, %47
  br label %63

63:                                               ; preds = %62, %33
  store i32 1, ptr %3, align 4
  store i32 1, ptr %7, align 4
  br label %64

64:                                               ; preds = %63, %60, %30, %12
  call void @llvm.lifetime.end.p0(i64 8, ptr %6) #6
  %65 = load i32, ptr %3, align 4
  ret i32 %65
}