; Function Attrs: nounwind uwtable
define internal fastcc range(i32 0, 2) i32 @hkdf_common_get_ctx_params(ptr noundef %0, ptr noundef %1) unnamed_addr #0 {
  %3 = icmp eq ptr %1, null
  br i1 %3, label %.critedge, label %ossl_param_is_empty.exit

ossl_param_is_empty.exit:                         ; preds = %2
  %4 = load ptr, ptr %1, align 8, !tbaa !27
  %.not = icmp eq ptr %4, null
  br i1 %.not, label %.critedge, label %5

5:                                                ; preds = %ossl_param_is_empty.exit
  %6 = tail call ptr @OSSL_PARAM_locate(ptr noundef nonnull %1, ptr noundef nonnull @.str.11) #7
  %.not20 = icmp eq ptr %6, null
  br i1 %.not20, label %17, label %7

7:                                                ; preds = %5
  %8 = getelementptr inbounds nuw i8, ptr %0, i64 16
  %9 = tail call ptr @ossl_prov_digest_md(ptr noundef nonnull %8) #7
  %10 = getelementptr inbounds nuw i8, ptr %0, i64 8
  %11 = load i32, ptr %10, align 8, !tbaa !26
  %.not.i = icmp eq i32 %11, 1
  br i1 %.not.i, label %12, label %kdf_hkdf_size.exit.thread26

12:                                               ; preds = %7
  %13 = icmp eq ptr %9, null
  br i1 %13, label %kdf_hkdf_size.exit.thread, label %kdf_hkdf_size.exit

kdf_hkdf_size.exit.thread:                        ; preds = %12
  tail call void @ERR_new() #7
  tail call void @ERR_set_debug(ptr noundef nonnull @.str, i32 noundef 185, ptr noundef nonnull @__func__.kdf_hkdf_size) #7
  tail call void (i32, i32, ptr, ...) @ERR_set_error(i32 noundef 57, i32 noundef 129, ptr noundef null) #7
  br label %.critedge

kdf_hkdf_size.exit:                               ; preds = %12
  %14 = tail call i32 @EVP_MD_get_size(ptr noundef nonnull %9) #7
  %spec.select.i = zext nneg i32 %14 to i64
  %15 = icmp slt i32 %14, 1
  br i1 %15, label %.critedge, label %kdf_hkdf_size.exit.thread26

kdf_hkdf_size.exit.thread26:                      ; preds = %7, %kdf_hkdf_size.exit
  %.0.i28 = phi i64 [ %spec.select.i, %kdf_hkdf_size.exit ], [ -1, %7 ]
  %16 = tail call i32 @OSSL_PARAM_set_size_t(ptr noundef nonnull %6, i64 noundef %.0.i28) #7
  %.not21.not = icmp eq i32 %16, 0
  br i1 %.not21.not, label %.critedge, label %17

17:                                               ; preds = %kdf_hkdf_size.exit.thread26, %5
  %18 = tail call ptr @OSSL_PARAM_locate(ptr noundef nonnull %1, ptr noundef nonnull @.str.7) #7
  %.not22 = icmp eq ptr %18, null
  br i1 %.not22, label %31, label %19

19:                                               ; preds = %17
  %20 = getelementptr inbounds nuw i8, ptr %0, i64 120
  %21 = load ptr, ptr %20, align 8, !tbaa !24
  %22 = icmp eq ptr %21, null
  br i1 %22, label %27, label %23

23:                                               ; preds = %19
  %24 = getelementptr inbounds nuw i8, ptr %0, i64 128
  %25 = load i64, ptr %24, align 8, !tbaa !25
  %26 = icmp eq i64 %25, 0
  br i1 %26, label %27, label %29

27:                                               ; preds = %23, %19
  %28 = getelementptr inbounds nuw i8, ptr %18, i64 32
  store i64 0, ptr %28, align 8, !tbaa !36
  br label %31

29:                                               ; preds = %23
  %30 = tail call i32 @OSSL_PARAM_set_octet_string(ptr noundef nonnull %18, ptr noundef nonnull %21, i64 noundef %25) #7
  %.not23 = icmp eq i32 %30, 0
  br i1 %.not23, label %.critedge, label %31

31:                                               ; preds = %27, %29, %17
  br label %.critedge

.critedge:                                        ; preds = %2, %kdf_hkdf_size.exit.thread, %kdf_hkdf_size.exit, %29, %ossl_param_is_empty.exit, %kdf_hkdf_size.exit.thread26, %31
  %.0 = phi i32 [ 1, %31 ], [ 0, %kdf_hkdf_size.exit.thread26 ], [ 1, %ossl_param_is_empty.exit ], [ 0, %29 ], [ 0, %kdf_hkdf_size.exit ], [ 0, %kdf_hkdf_size.exit.thread ], [ 1, %2 ]
  ret i32 %.0
}